target datalayout = "e-m:e-p270:32:32-p271:32:32-p272:64:64-i64:64-i128:128-f80:128-n8:16:32:64-S128"
target triple = "x86_64-pc-linux-gnu"

%struct.pathspec = type { i32, i8, i32, i32, ptr }
%struct.strbuf = type { i64, i64, ptr }
%struct.pathspec_item = type { ptr, ptr, i32, i32, i32, i32, i32, i32, ptr, ptr }

@.str.46 = private unnamed_addr constant [39 x i8] c"--follow requires exactly one pathspec\00", align 1
@__const.diff_check_follow_pathspec.sb = private unnamed_addr constant %struct.strbuf { i64 0, i64 0, ptr @strbuf_slopbuf }, align 8
@.str.47 = private unnamed_addr constant [45 x i8] c"pathspec magic not supported by --follow: %s\00", align 1

; Function Attrs: nounwind uwtable
define dso_local i32 @diff_check_follow_pathspec(ptr noundef %0, i32 noundef %1) #0 {
  %3 = alloca i32, align 4
  %4 = alloca ptr, align 8
  %5 = alloca i32, align 4
  %6 = alloca i32, align 4
  %7 = alloca i32, align 4
  %8 = alloca %struct.strbuf, align 8
  store ptr %0, ptr %4, align 8, !tbaa !190
  store i32 %1, ptr %5, align 4, !tbaa !16
  call void @llvm.lifetime.start.p0(i64 4, ptr %6) #10
  %9 = load ptr, ptr %4, align 8, !tbaa !190
  %10 = getelementptr inbounds nuw %struct.pathspec, ptr %9, i32 0, i32 0
  %11 = load i32, ptr %10, align 8, !tbaa !192
  %12 = icmp ne i32 %11, 1
  br i1 %12, label %13, label %19

13:                                               ; preds = %2
  %14 = load i32, ptr %5, align 4, !tbaa !16
  %15 = icmp ne i32 %14, 0
  br i1 %15, label %16, label %18

16:                                               ; preds = %13
  %17 = call ptr @_(ptr noundef @.str.46)
  call void (ptr, ...) @die(ptr noundef %17) #12
  unreachable

18:                                               ; preds = %13
  store i32 0, ptr %3, align 4
  store i32 1, ptr %7, align 4
  br label %39

19:                                               ; preds = %2
  %20 = load ptr, ptr %4, align 8, !tbaa !190
  %21 = getelementptr inbounds nuw %struct.pathspec, ptr %20, i32 0, i32 4
  %22 = load ptr, ptr %21, align 8, !tbaa !193
  %23 = getelementptr inbounds %struct.pathspec_item, ptr %22, i64 0
  %24 = getelementptr inbounds nuw %struct.pathspec_item, ptr %23, i32 0, i32 2
  %25 = load i32, ptr %24, align 8, !tbaa !194
  %26 = and i32 %25, -6
  store i32 %26, ptr %6, align 4, !tbaa !16
  %27 = load i32, ptr %6, align 4, !tbaa !16
  %28 = icmp ne i32 %27, 0
  br i1 %28, label %29, label %38

29:                                               ; preds = %19
  %30 = load i32, ptr %5, align 4, !tbaa !16
  %31 = icmp ne i32 %30, 0
  br i1 %31, label %32, label %37

32:                                               ; preds = %29
  call void @llvm.lifetime.start.p0(i64 24, ptr %8) #10
  call void @llvm.memcpy.p0.p0.i64(ptr align 8 %8, ptr align 8 @__const.diff_check_follow_pathspec.sb, i64 24, i1 false)
  %33 = load i32, ptr %6, align 4, !tbaa !16
  call void @pathspec_magic_names(i32 noundef %33, ptr noundef %8)
  %34 = call ptr @_(ptr noundef @.str.47)
  %35 = getelementptr inbounds nuw %struct.strbuf, ptr %8, i32 0, i32 2
  %36 = load ptr, ptr %35, align 8, !tbaa !31
  call void (ptr, ...) @die(ptr noundef %34, ptr noundef %36) #12
  unreachable

37:                                               ; preds = %29
  store i32 0, ptr %3, align 4
  store i32 1, ptr %7, align 4
  br label %39

38:                                               ; preds = %19
  store i32 1, ptr %3, align 4
  store i32 1, ptr %7, align 4
  br label %39

39:                                               ; preds = %38, %37, %18
  call void @llvm.lifetime.end.p0(i64 4, ptr %6) #10
  %40 = load i32, ptr %3, align 4
  ret i32 %40
}