; Function Attrs: nounwind uwtable
define dso_local range(i32 0, 2) i32 @diff_check_follow_pathspec(ptr noundef readonly captures(none) %0, i32 noundef %1) local_unnamed_addr #0 {
  %3 = alloca %struct.strbuf, align 8
  %4 = load i32, ptr %0, align 8, !tbaa !184
  %.not = icmp eq i32 %4, 1
  br i1 %.not, label %8, label %5

5:                                                ; preds = %2
  %.not9 = icmp eq i32 %1, 0
  br i1 %.not9, label %19, label %6

6:                                                ; preds = %5
  %7 = tail call fastcc ptr @_(ptr noundef nonnull @.str.46)
  tail call void (ptr, ...) @die(ptr noundef %7) #34
  unreachable

8:                                                ; preds = %2
  %9 = getelementptr inbounds nuw i8, ptr %0, i64 16
  %10 = load ptr, ptr %9, align 8, !tbaa !185
  %11 = getelementptr inbounds nuw i8, ptr %10, i64 16
  %12 = load i32, ptr %11, align 8, !tbaa !186
  %13 = and i32 %12, -6
  %.not7 = icmp eq i32 %13, 0
  br i1 %.not7, label %19, label %14

14:                                               ; preds = %8
  %.not8 = icmp eq i32 %1, 0
  br i1 %.not8, label %19, label %15

15:                                               ; preds = %14
  call void @llvm.lifetime.start.p0(i64 24, ptr nonnull %3) #32
  call void @llvm.memcpy.p0.p0.i64(ptr noundef nonnull align 8 dereferenceable(24) %3, ptr noundef nonnull align 8 dereferenceable(24) @__const.run_textconv.buf, i64 24, i1 false)
  call void @pathspec_magic_names(i32 noundef %13, ptr noundef nonnull %3) #32
  %16 = call fastcc ptr @_(ptr noundef nonnull @.str.47)
  %17 = getelementptr inbounds nuw i8, ptr %3, i64 16
  %18 = load ptr, ptr %17, align 8, !tbaa !24
  call void (ptr, ...) @die(ptr noundef %16, ptr noundef %18) #34
  unreachable

19:                                               ; preds = %8, %14, %5
  %.0 = phi i32 [ 0, %5 ], [ 0, %14 ], [ 1, %8 ]
  ret i32 %.0
}